
large.o:     file format pe-i386


Disassembly of section .text:

00000000 <_main>:
   0:	55                   	push   ebp
   1:	89 e5                	mov    ebp,esp
   3:	83 e4 f0             	and    esp,0xfffffff0
   6:	83 ec 20             	sub    esp,0x20
   9:	e8 00 00 00 00       	call   e <_main+0xe>
   e:	c7 04 24 00 00 00 00 	mov    DWORD PTR [esp],0x0
  15:	e8 00 00 00 00       	call   1a <_main+0x1a>
  1a:	8d 44 24 18          	lea    eax,[esp+0x18]
  1e:	89 44 24 08          	mov    DWORD PTR [esp+0x8],eax
  22:	8d 44 24 1c          	lea    eax,[esp+0x1c]
  26:	89 44 24 04          	mov    DWORD PTR [esp+0x4],eax
  2a:	c7 04 24 14 00 00 00 	mov    DWORD PTR [esp],0x14
  31:	e8 00 00 00 00       	call   36 <_main+0x36>
  36:	8b 54 24 1c          	mov    edx,DWORD PTR [esp+0x1c]
  3a:	8b 44 24 18          	mov    eax,DWORD PTR [esp+0x18]
  3e:	39 c2                	cmp    edx,eax
  40:	7e 16                	jle    58 <_main+0x58>
  42:	8b 44 24 1c          	mov    eax,DWORD PTR [esp+0x1c]
  46:	89 44 24 04          	mov    DWORD PTR [esp+0x4],eax
  4a:	c7 04 24 1a 00 00 00 	mov    DWORD PTR [esp],0x1a
  51:	e8 00 00 00 00       	call   56 <_main+0x56>
  56:	eb 2e                	jmp    86 <_main+0x86>
  58:	8b 54 24 18          	mov    edx,DWORD PTR [esp+0x18]
  5c:	8b 44 24 1c          	mov    eax,DWORD PTR [esp+0x1c]
  60:	39 c2                	cmp    edx,eax
  62:	7e 16                	jle    7a <_main+0x7a>
  64:	8b 44 24 18          	mov    eax,DWORD PTR [esp+0x18]
  68:	89 44 24 04          	mov    DWORD PTR [esp+0x4],eax
  6c:	c7 04 24 1a 00 00 00 	mov    DWORD PTR [esp],0x1a
  73:	e8 00 00 00 00       	call   78 <_main+0x78>
  78:	eb 0c                	jmp    86 <_main+0x86>
  7a:	c7 04 24 29 00 00 00 	mov    DWORD PTR [esp],0x29
  81:	e8 00 00 00 00       	call   86 <_main+0x86>
  86:	b8 00 00 00 00       	mov    eax,0x0
  8b:	c9                   	leave  
  8c:	c3                   	ret    
  8d:	90                   	nop
  8e:	90                   	nop
  8f:	90                   	nop
