
fac.o:     file format pe-i386


Disassembly of section .text:

00000000 <_main>:
   0:	55                   	push   ebp
   1:	89 e5                	mov    ebp,esp
   3:	53                   	push   ebx
   4:	83 e4 f0             	and    esp,0xfffffff0
   7:	83 ec 30             	sub    esp,0x30
   a:	e8 00 00 00 00       	call   f <_main+0xf>
   f:	c7 44 24 20 01 00 00 	mov    DWORD PTR [esp+0x20],0x1
  16:	00 
  17:	c7 44 24 24 00 00 00 	mov    DWORD PTR [esp+0x24],0x0
  1e:	00 
  1f:	c7 04 24 00 00 00 00 	mov    DWORD PTR [esp],0x0
  26:	e8 00 00 00 00       	call   2b <_main+0x2b>
  2b:	8d 44 24 1c          	lea    eax,[esp+0x1c]
  2f:	89 44 24 04          	mov    DWORD PTR [esp+0x4],eax
  33:	c7 04 24 11 00 00 00 	mov    DWORD PTR [esp],0x11
  3a:	e8 00 00 00 00       	call   3f <_main+0x3f>
  3f:	c7 44 24 2c 01 00 00 	mov    DWORD PTR [esp+0x2c],0x1
  46:	00 
  47:	eb 34                	jmp    7d <_main+0x7d>
  49:	8b 44 24 2c          	mov    eax,DWORD PTR [esp+0x2c]
  4d:	99                   	cdq    
  4e:	8b 4c 24 24          	mov    ecx,DWORD PTR [esp+0x24]
  52:	89 cb                	mov    ebx,ecx
  54:	0f af d8             	imul   ebx,eax
  57:	8b 4c 24 20          	mov    ecx,DWORD PTR [esp+0x20]
  5b:	0f af ca             	imul   ecx,edx
  5e:	01 d9                	add    ecx,ebx
  60:	f7 64 24 20          	mul    DWORD PTR [esp+0x20]
  64:	01 d1                	add    ecx,edx
  66:	89 ca                	mov    edx,ecx
  68:	89 44 24 20          	mov    DWORD PTR [esp+0x20],eax
  6c:	89 54 24 24          	mov    DWORD PTR [esp+0x24],edx
  70:	89 44 24 20          	mov    DWORD PTR [esp+0x20],eax
  74:	89 54 24 24          	mov    DWORD PTR [esp+0x24],edx
  78:	83 44 24 2c 01       	add    DWORD PTR [esp+0x2c],0x1
  7d:	8b 44 24 1c          	mov    eax,DWORD PTR [esp+0x1c]
  81:	39 44 24 2c          	cmp    DWORD PTR [esp+0x2c],eax
  85:	7e c2                	jle    49 <_main+0x49>
  87:	8b 4c 24 1c          	mov    ecx,DWORD PTR [esp+0x1c]
  8b:	8b 44 24 20          	mov    eax,DWORD PTR [esp+0x20]
  8f:	8b 54 24 24          	mov    edx,DWORD PTR [esp+0x24]
  93:	89 44 24 08          	mov    DWORD PTR [esp+0x8],eax
  97:	89 54 24 0c          	mov    DWORD PTR [esp+0xc],edx
  9b:	89 4c 24 04          	mov    DWORD PTR [esp+0x4],ecx
  9f:	c7 04 24 14 00 00 00 	mov    DWORD PTR [esp],0x14
  a6:	e8 00 00 00 00       	call   ab <_main+0xab>
  ab:	b8 00 00 00 00       	mov    eax,0x0
  b0:	8b 5d fc             	mov    ebx,DWORD PTR [ebp-0x4]
  b3:	c9                   	leave  
  b4:	c3                   	ret    
  b5:	90                   	nop
  b6:	90                   	nop
  b7:	90                   	nop
